target datalayout = "e-m:e-p270:32:32-p271:32:32-p272:64:64-i64:64-i128:128-f80:128-n8:16:32:64-S128"
target triple = "x86_64-pc-linux-gnu"

%struct.lean_object = type { i32, i32 }
%struct.lean_ctor_object = type { %struct.lean_object, [0 x ptr] }

; Function Attrs: inlinehint nounwind uwtable
define internal ptr @lean_to_ctor(ptr noundef %0) #0 {
  %2 = alloca ptr, align 8
  store ptr %0, ptr %2, align 8, !tbaa !8
  %3 = load ptr, ptr %2, align 8, !tbaa !8
  ret ptr %3
}

; Function Attrs: alwaysinline nounwind uwtable
define internal void @lean_dec_ref(ptr noundef %0) #1 {
  %2 = alloca ptr, align 8
  store ptr %0, ptr %2, align 8, !tbaa !8
  %3 = load ptr, ptr %2, align 8, !tbaa !8
  %4 = getelementptr inbounds nuw %struct.lean_object, ptr %3, i32 0, i32 0
  %5 = load i32, ptr %4, align 4, !tbaa !17
  %6 = icmp sgt i32 %5, 1
  %7 = zext i1 %6 to i32
  %8 = sext i32 %7 to i64
  %9 = call i64 @llvm.expect.i64(i64 %8, i64 1)
  %10 = icmp ne i64 %9, 0
  br i1 %10, label %11, label %16

11:                                               ; preds = %1
  %12 = load ptr, ptr %2, align 8, !tbaa !8
  %13 = getelementptr inbounds nuw %struct.lean_object, ptr %12, i32 0, i32 0
  %14 = load i32, ptr %13, align 4, !tbaa !17
  %15 = add i32 %14, -1
  store i32 %15, ptr %13, align 4, !tbaa !17
  br label %24

16:                                               ; preds = %1
  %17 = load ptr, ptr %2, align 8, !tbaa !8
  %18 = getelementptr inbounds nuw %struct.lean_object, ptr %17, i32 0, i32 0
  %19 = load i32, ptr %18, align 4, !tbaa !17
  %20 = icmp ne i32 %19, 0
  br i1 %20, label %21, label %23

21:                                               ; preds = %16
  %22 = load ptr, ptr %2, align 8, !tbaa !8
  call void @lean_dec_ref_cold(ptr noundef %22)
  br label %23

23:                                               ; preds = %21, %16
  br label %24

24:                                               ; preds = %23, %11
  ret void
}

; Function Attrs: inlinehint nounwind uwtable
define internal ptr @lean_ctor_obj_cptr(ptr noundef %0) #0 {
  %2 = alloca ptr, align 8
  store ptr %0, ptr %2, align 8, !tbaa !8
  %3 = load ptr, ptr %2, align 8, !tbaa !8
  %4 = call ptr @lean_to_ctor(ptr noundef %3)
  %5 = getelementptr inbounds nuw %struct.lean_ctor_object, ptr %4, i32 0, i32 1
  %6 = getelementptr inbounds [0 x ptr], ptr %5, i64 0, i64 0
  ret ptr %6
}

; Function Attrs: inlinehint nounwind uwtable
define internal zeroext i8 @lean_ptr_tag(ptr noundef %0) #0 {
  %2 = alloca ptr, align 8
  store ptr %0, ptr %2, align 8, !tbaa !8
  %3 = load ptr, ptr %2, align 8, !tbaa !8
  %4 = getelementptr inbounds nuw %struct.lean_object, ptr %3, i32 0, i32 1
  %5 = load i32, ptr %4, align 4
  %6 = lshr i32 %5, 24
  %7 = trunc i32 %6 to i8
  ret i8 %7
}

; Function Attrs: inlinehint nounwind uwtable
define internal i64 @lean_unbox(ptr noundef %0) #0 {
  %2 = alloca ptr, align 8
  store ptr %0, ptr %2, align 8, !tbaa !8
  %3 = load ptr, ptr %2, align 8, !tbaa !8
  %4 = ptrtoint ptr %3 to i64
  %5 = lshr i64 %4, 1
  ret i64 %5
}

; Function Attrs: alwaysinline nounwind uwtable
define internal zeroext i1 @lean_is_scalar(ptr noundef %0) #1 {
  %2 = alloca ptr, align 8
  store ptr %0, ptr %2, align 8, !tbaa !8
  %3 = load ptr, ptr %2, align 8, !tbaa !8
  %4 = ptrtoint ptr %3 to i64
  %5 = and i64 %4, 1
  %6 = icmp eq i64 %5, 1
  ret i1 %6
}

; Function Attrs: alwaysinline nounwind uwtable
define internal void @lean_dec(ptr noundef %0) #1 {
  %2 = alloca ptr, align 8
  store ptr %0, ptr %2, align 8, !tbaa !8
  %3 = load ptr, ptr %2, align 8, !tbaa !8
  %4 = call zeroext i1 @lean_is_scalar(ptr noundef %3)
  br i1 %4, label %7, label %5

5:                                                ; preds = %1
  %6 = load ptr, ptr %2, align 8, !tbaa !8
  call void @lean_dec_ref(ptr noundef %6)
  br label %7

7:                                                ; preds = %5, %1
  ret void
}

; Function Attrs: inlinehint nounwind uwtable
define internal ptr @lean_ctor_get(ptr noundef %0, i32 noundef %1) #0 {
  %3 = alloca ptr, align 8
  %4 = alloca i32, align 4
  store ptr %0, ptr %3, align 8, !tbaa !8
  store i32 %1, ptr %4, align 4, !tbaa !11
  %5 = load ptr, ptr %3, align 8, !tbaa !8
  %6 = call ptr @lean_ctor_obj_cptr(ptr noundef %5)
  %7 = load i32, ptr %4, align 4, !tbaa !11
  %8 = zext i32 %7 to i64
  %9 = getelementptr inbounds nuw ptr, ptr %6, i64 %8
  %10 = load ptr, ptr %9, align 8, !tbaa !8
  ret ptr %10
}

; Function Attrs: inlinehint nounwind uwtable
define internal i32 @lean_obj_tag(ptr noundef %0) #0 {
  %2 = alloca i32, align 4
  %3 = alloca ptr, align 8
  store ptr %0, ptr %3, align 8, !tbaa !8
  %4 = load ptr, ptr %3, align 8, !tbaa !8
  %5 = call zeroext i1 @lean_is_scalar(ptr noundef %4)
  br i1 %5, label %6, label %10

6:                                                ; preds = %1
  %7 = load ptr, ptr %3, align 8, !tbaa !8
  %8 = call i64 @lean_unbox(ptr noundef %7)
  %9 = trunc i64 %8 to i32
  store i32 %9, ptr %2, align 4
  br label %14

10:                                               ; preds = %1
  %11 = load ptr, ptr %3, align 8, !tbaa !8
  %12 = call zeroext i8 @lean_ptr_tag(ptr noundef %11)
  %13 = zext i8 %12 to i32
  store i32 %13, ptr %2, align 4
  br label %14

14:                                               ; preds = %10, %6
  %15 = load i32, ptr %2, align 4
  ret i32 %15
}

; Function Attrs: nounwind uwtable
define zeroext i8 @l_Lean_Expr_hasAnyFVar_visit___at___private_Lean_Compiler_LCNF_DependsOn_0__Lean_Compiler_LCNF_typeDepOn___spec__1(ptr noundef %0, ptr noundef %1) #2 {
  %3 = alloca i8, align 1
  %4 = alloca ptr, align 8
  %5 = alloca ptr, align 8
  %6 = alloca i8, align 1
  %7 = alloca i8, align 1
  %8 = alloca i32, align 4
  %9 = alloca ptr, align 8
  %10 = alloca ptr, align 8
  %11 = alloca i8, align 1
  %12 = alloca i8, align 1
  %13 = alloca ptr, align 8
  %14 = alloca ptr, align 8
  %15 = alloca i8, align 1
  %16 = alloca i8, align 1
  %17 = alloca ptr, align 8
  %18 = alloca ptr, align 8
  %19 = alloca i8, align 1
  %20 = alloca i8, align 1
  %21 = alloca ptr, align 8
  %22 = alloca ptr, align 8
  %23 = alloca i8, align 1
  %24 = alloca i8, align 1
  %25 = alloca ptr, align 8
  %26 = alloca ptr, align 8
  %27 = alloca ptr, align 8
  %28 = alloca i8, align 1
  %29 = alloca i8, align 1
  %30 = alloca i8, align 1
  %31 = alloca i8, align 1
  %32 = alloca ptr, align 8
  %33 = alloca ptr, align 8
  %34 = alloca i8, align 1
  store ptr %0, ptr %4, align 8, !tbaa !8
  store ptr %1, ptr %5, align 8, !tbaa !8
  br label %35

35:                                               ; preds = %147, %2
  call void @llvm.lifetime.start.p0(i64 1, ptr %6) #7
  %36 = load ptr, ptr %5, align 8, !tbaa !8
  %37 = call zeroext i8 @l_Lean_Expr_hasFVar(ptr noundef %36)
  store i8 %37, ptr %6, align 1, !tbaa !10
  %38 = load i8, ptr %6, align 1, !tbaa !10
  %39 = zext i8 %38 to i32
  %40 = icmp eq i32 %39, 0
  br i1 %40, label %41, label %43

41:                                               ; preds = %35
  call void @llvm.lifetime.start.p0(i64 1, ptr %7) #7
  store i8 0, ptr %7, align 1, !tbaa !10
  %42 = load i8, ptr %7, align 1, !tbaa !10
  store i8 %42, ptr %3, align 1
  store i32 1, ptr %8, align 4
  call void @llvm.lifetime.end.p0(i64 1, ptr %7) #7
  br label %147

43:                                               ; preds = %35
  %44 = load ptr, ptr %5, align 8, !tbaa !8
  %45 = call i32 @lean_obj_tag(ptr noundef %44)
  switch i32 %45, label %145 [
    i32 1, label %46
    i32 5, label %61
    i32 6, label %77
    i32 7, label %93
    i32 8, label %109
    i32 10, label %137
    i32 11, label %141
  ]

46:                                               ; preds = %43
  call void @llvm.lifetime.start.p0(i64 8, ptr %9) #7
  call void @llvm.lifetime.start.p0(i64 8, ptr %10) #7
  %47 = load ptr, ptr %5, align 8, !tbaa !8
  %48 = call ptr @lean_ctor_get(ptr noundef %47, i32 noundef 0)
  store ptr %48, ptr %9, align 8, !tbaa !8
  %49 = load ptr, ptr %4, align 8, !tbaa !8
  %50 = load ptr, ptr %9, align 8, !tbaa !8
  %51 = call ptr @l_Lean_RBNode_findCore___at___private_Lean_Meta_FunInfo_0__Lean_Meta_getFunInfoAux___spec__2(ptr noundef %49, ptr noundef %50)
  store ptr %51, ptr %10, align 8, !tbaa !8
  %52 = load ptr, ptr %10, align 8, !tbaa !8
  %53 = call i32 @lean_obj_tag(ptr noundef %52)
  %54 = icmp eq i32 %53, 0
  br i1 %54, label %55, label %57

55:                                               ; preds = %46
  call void @llvm.lifetime.start.p0(i64 1, ptr %11) #7
  store i8 0, ptr %11, align 1, !tbaa !10
  %56 = load i8, ptr %11, align 1, !tbaa !10
  store i8 %56, ptr %3, align 1
  store i32 1, ptr %8, align 4
  call void @llvm.lifetime.end.p0(i64 1, ptr %11) #7
  br label %60

57:                                               ; preds = %46
  call void @llvm.lifetime.start.p0(i64 1, ptr %12) #7
  %58 = load ptr, ptr %10, align 8, !tbaa !8
  call void @lean_dec(ptr noundef %58)
  store i8 1, ptr %12, align 1, !tbaa !10
  %59 = load i8, ptr %12, align 1, !tbaa !10
  store i8 %59, ptr %3, align 1
  store i32 1, ptr %8, align 4
  call void @llvm.lifetime.end.p0(i64 1, ptr %12) #7
  br label %60

60:                                               ; preds = %57, %55
  call void @llvm.lifetime.end.p0(i64 8, ptr %10) #7
  call void @llvm.lifetime.end.p0(i64 8, ptr %9) #7
  br label %147

61:                                               ; preds = %43
  call void @llvm.lifetime.start.p0(i64 8, ptr %13) #7
  call void @llvm.lifetime.start.p0(i64 8, ptr %14) #7
  call void @llvm.lifetime.start.p0(i64 1, ptr %15) #7
  %62 = load ptr, ptr %5, align 8, !tbaa !8
  %63 = call ptr @lean_ctor_get(ptr noundef %62, i32 noundef 0)
  store ptr %63, ptr %13, align 8, !tbaa !8
  %64 = load ptr, ptr %5, align 8, !tbaa !8
  %65 = call ptr @lean_ctor_get(ptr noundef %64, i32 noundef 1)
  store ptr %65, ptr %14, align 8, !tbaa !8
  %66 = load ptr, ptr %4, align 8, !tbaa !8
  %67 = load ptr, ptr %13, align 8, !tbaa !8
  %68 = call zeroext i8 @l_Lean_Expr_hasAnyFVar_visit___at___private_Lean_Compiler_LCNF_DependsOn_0__Lean_Compiler_LCNF_typeDepOn___spec__1(ptr noundef %66, ptr noundef %67)
  store i8 %68, ptr %15, align 1, !tbaa !10
  %69 = load i8, ptr %15, align 1, !tbaa !10
  %70 = zext i8 %69 to i32
  %71 = icmp eq i32 %70, 0
  br i1 %71, label %72, label %74

72:                                               ; preds = %61
  %73 = load ptr, ptr %14, align 8, !tbaa !8
  store ptr %73, ptr %5, align 8, !tbaa !8
  store i32 2, ptr %8, align 4
  br label %76

74:                                               ; preds = %61
  call void @llvm.lifetime.start.p0(i64 1, ptr %16) #7
  store i8 1, ptr %16, align 1, !tbaa !10
  %75 = load i8, ptr %16, align 1, !tbaa !10
  store i8 %75, ptr %3, align 1
  store i32 1, ptr %8, align 4
  call void @llvm.lifetime.end.p0(i64 1, ptr %16) #7
  br label %76

76:                                               ; preds = %74, %72
  call void @llvm.lifetime.end.p0(i64 1, ptr %15) #7
  call void @llvm.lifetime.end.p0(i64 8, ptr %14) #7
  call void @llvm.lifetime.end.p0(i64 8, ptr %13) #7
  br label %147

77:                                               ; preds = %43
  call void @llvm.lifetime.start.p0(i64 8, ptr %17) #7
  call void @llvm.lifetime.start.p0(i64 8, ptr %18) #7
  call void @llvm.lifetime.start.p0(i64 1, ptr %19) #7
  %78 = load ptr, ptr %5, align 8, !tbaa !8
  %79 = call ptr @lean_ctor_get(ptr noundef %78, i32 noundef 1)
  store ptr %79, ptr %17, align 8, !tbaa !8
  %80 = load ptr, ptr %5, align 8, !tbaa !8
  %81 = call ptr @lean_ctor_get(ptr noundef %80, i32 noundef 2)
  store ptr %81, ptr %18, align 8, !tbaa !8
  %82 = load ptr, ptr %4, align 8, !tbaa !8
  %83 = load ptr, ptr %17, align 8, !tbaa !8
  %84 = call zeroext i8 @l_Lean_Expr_hasAnyFVar_visit___at___private_Lean_Compiler_LCNF_DependsOn_0__Lean_Compiler_LCNF_typeDepOn___spec__1(ptr noundef %82, ptr noundef %83)
  store i8 %84, ptr %19, align 1, !tbaa !10
  %85 = load i8, ptr %19, align 1, !tbaa !10
  %86 = zext i8 %85 to i32
  %87 = icmp eq i32 %86, 0
  br i1 %87, label %88, label %90

88:                                               ; preds = %77
  %89 = load ptr, ptr %18, align 8, !tbaa !8
  store ptr %89, ptr %5, align 8, !tbaa !8
  store i32 2, ptr %8, align 4
  br label %92

90:                                               ; preds = %77
  call void @llvm.lifetime.start.p0(i64 1, ptr %20) #7
  store i8 1, ptr %20, align 1, !tbaa !10
  %91 = load i8, ptr %20, align 1, !tbaa !10
  store i8 %91, ptr %3, align 1
  store i32 1, ptr %8, align 4
  call void @llvm.lifetime.end.p0(i64 1, ptr %20) #7
  br label %92

92:                                               ; preds = %90, %88
  call void @llvm.lifetime.end.p0(i64 1, ptr %19) #7
  call void @llvm.lifetime.end.p0(i64 8, ptr %18) #7
  call void @llvm.lifetime.end.p0(i64 8, ptr %17) #7
  br label %147

93:                                               ; preds = %43
  call void @llvm.lifetime.start.p0(i64 8, ptr %21) #7
  call void @llvm.lifetime.start.p0(i64 8, ptr %22) #7
  call void @llvm.lifetime.start.p0(i64 1, ptr %23) #7
  %94 = load ptr, ptr %5, align 8, !tbaa !8
  %95 = call ptr @lean_ctor_get(ptr noundef %94, i32 noundef 1)
  store ptr %95, ptr %21, align 8, !tbaa !8
  %96 = load ptr, ptr %5, align 8, !tbaa !8
  %97 = call ptr @lean_ctor_get(ptr noundef %96, i32 noundef 2)
  store ptr %97, ptr %22, align 8, !tbaa !8
  %98 = load ptr, ptr %4, align 8, !tbaa !8
  %99 = load ptr, ptr %21, align 8, !tbaa !8
  %100 = call zeroext i8 @l_Lean_Expr_hasAnyFVar_visit___at___private_Lean_Compiler_LCNF_DependsOn_0__Lean_Compiler_LCNF_typeDepOn___spec__1(ptr noundef %98, ptr noundef %99)
  store i8 %100, ptr %23, align 1, !tbaa !10
  %101 = load i8, ptr %23, align 1, !tbaa !10
  %102 = zext i8 %101 to i32
  %103 = icmp eq i32 %102, 0
  br i1 %103, label %104, label %106

104:                                              ; preds = %93
  %105 = load ptr, ptr %22, align 8, !tbaa !8
  store ptr %105, ptr %5, align 8, !tbaa !8
  store i32 2, ptr %8, align 4
  br label %108

106:                                              ; preds = %93
  call void @llvm.lifetime.start.p0(i64 1, ptr %24) #7
  store i8 1, ptr %24, align 1, !tbaa !10
  %107 = load i8, ptr %24, align 1, !tbaa !10
  store i8 %107, ptr %3, align 1
  store i32 1, ptr %8, align 4
  call void @llvm.lifetime.end.p0(i64 1, ptr %24) #7
  br label %108

108:                                              ; preds = %106, %104
  call void @llvm.lifetime.end.p0(i64 1, ptr %23) #7
  call void @llvm.lifetime.end.p0(i64 8, ptr %22) #7
  call void @llvm.lifetime.end.p0(i64 8, ptr %21) #7
  br label %147

109:                                              ; preds = %43
  call void @llvm.lifetime.start.p0(i64 8, ptr %25) #7
  call void @llvm.lifetime.start.p0(i64 8, ptr %26) #7
  call void @llvm.lifetime.start.p0(i64 8, ptr %27) #7
  call void @llvm.lifetime.start.p0(i64 1, ptr %28) #7
  %110 = load ptr, ptr %5, align 8, !tbaa !8
  %111 = call ptr @lean_ctor_get(ptr noundef %110, i32 noundef 1)
  store ptr %111, ptr %25, align 8, !tbaa !8
  %112 = load ptr, ptr %5, align 8, !tbaa !8
  %113 = call ptr @lean_ctor_get(ptr noundef %112, i32 noundef 2)
  store ptr %113, ptr %26, align 8, !tbaa !8
  %114 = load ptr, ptr %5, align 8, !tbaa !8
  %115 = call ptr @lean_ctor_get(ptr noundef %114, i32 noundef 3)
  store ptr %115, ptr %27, align 8, !tbaa !8
  %116 = load ptr, ptr %4, align 8, !tbaa !8
  %117 = load ptr, ptr %25, align 8, !tbaa !8
  %118 = call zeroext i8 @l_Lean_Expr_hasAnyFVar_visit___at___private_Lean_Compiler_LCNF_DependsOn_0__Lean_Compiler_LCNF_typeDepOn___spec__1(ptr noundef %116, ptr noundef %117)
  store i8 %118, ptr %28, align 1, !tbaa !10
  %119 = load i8, ptr %28, align 1, !tbaa !10
  %120 = zext i8 %119 to i32
  %121 = icmp eq i32 %120, 0
  br i1 %121, label %122, label %134

122:                                              ; preds = %109
  call void @llvm.lifetime.start.p0(i64 1, ptr %29) #7
  %123 = load ptr, ptr %4, align 8, !tbaa !8
  %124 = load ptr, ptr %26, align 8, !tbaa !8
  %125 = call zeroext i8 @l_Lean_Expr_hasAnyFVar_visit___at___private_Lean_Compiler_LCNF_DependsOn_0__Lean_Compiler_LCNF_typeDepOn___spec__1(ptr noundef %123, ptr noundef %124)
  store i8 %125, ptr %29, align 1, !tbaa !10
  %126 = load i8, ptr %29, align 1, !tbaa !10
  %127 = zext i8 %126 to i32
  %128 = icmp eq i32 %127, 0
  br i1 %128, label %129, label %131

129:                                              ; preds = %122
  %130 = load ptr, ptr %27, align 8, !tbaa !8
  store ptr %130, ptr %5, align 8, !tbaa !8
  store i32 2, ptr %8, align 4
  br label %133

131:                                              ; preds = %122
  call void @llvm.lifetime.start.p0(i64 1, ptr %30) #7
  store i8 1, ptr %30, align 1, !tbaa !10
  %132 = load i8, ptr %30, align 1, !tbaa !10
  store i8 %132, ptr %3, align 1
  store i32 1, ptr %8, align 4
  call void @llvm.lifetime.end.p0(i64 1, ptr %30) #7
  br label %133

133:                                              ; preds = %131, %129
  call void @llvm.lifetime.end.p0(i64 1, ptr %29) #7
  br label %136

134:                                              ; preds = %109
  call void @llvm.lifetime.start.p0(i64 1, ptr %31) #7
  store i8 1, ptr %31, align 1, !tbaa !10
  %135 = load i8, ptr %31, align 1, !tbaa !10
  store i8 %135, ptr %3, align 1
  store i32 1, ptr %8, align 4
  call void @llvm.lifetime.end.p0(i64 1, ptr %31) #7
  br label %136

136:                                              ; preds = %134, %133
  call void @llvm.lifetime.end.p0(i64 1, ptr %28) #7
  call void @llvm.lifetime.end.p0(i64 8, ptr %27) #7
  call void @llvm.lifetime.end.p0(i64 8, ptr %26) #7
  call void @llvm.lifetime.end.p0(i64 8, ptr %25) #7
  br label %147

137:                                              ; preds = %43
  call void @llvm.lifetime.start.p0(i64 8, ptr %32) #7
  %138 = load ptr, ptr %5, align 8, !tbaa !8
  %139 = call ptr @lean_ctor_get(ptr noundef %138, i32 noundef 1)
  store ptr %139, ptr %32, align 8, !tbaa !8
  %140 = load ptr, ptr %32, align 8, !tbaa !8
  store ptr %140, ptr %5, align 8, !tbaa !8
  store i32 2, ptr %8, align 4
  call void @llvm.lifetime.end.p0(i64 8, ptr %32) #7
  br label %147

141:                                              ; preds = %43
  call void @llvm.lifetime.start.p0(i64 8, ptr %33) #7
  %142 = load ptr, ptr %5, align 8, !tbaa !8
  %143 = call ptr @lean_ctor_get(ptr noundef %142, i32 noundef 2)
  store ptr %143, ptr %33, align 8, !tbaa !8
  %144 = load ptr, ptr %33, align 8, !tbaa !8
  store ptr %144, ptr %5, align 8, !tbaa !8
  store i32 2, ptr %8, align 4
  call void @llvm.lifetime.end.p0(i64 8, ptr %33) #7
  br label %147

145:                                              ; preds = %43
  call void @llvm.lifetime.start.p0(i64 1, ptr %34) #7
  store i8 0, ptr %34, align 1, !tbaa !10
  %146 = load i8, ptr %34, align 1, !tbaa !10
  store i8 %146, ptr %3, align 1
  store i32 1, ptr %8, align 4
  call void @llvm.lifetime.end.p0(i64 1, ptr %34) #7
  br label %147

147:                                              ; preds = %145, %141, %137, %136, %108, %92, %76, %60, %41
  call void @llvm.lifetime.end.p0(i64 1, ptr %6) #7
  %148 = load i32, ptr %8, align 4
  switch i32 %148, label %151 [
    i32 1, label %149
    i32 2, label %35
  ]

149:                                              ; preds = %147
  %150 = load i8, ptr %3, align 1
  ret i8 %150

151:                                              ; preds = %147
  unreachable
}