; Function Attrs: nounwind uwtable
define zeroext range(i8 0, 2) i8 @l_Lean_Expr_hasAnyFVar_visit___at___private_Lean_Compiler_LCNF_DependsOn_0__Lean_Compiler_LCNF_typeDepOn___spec__1(ptr noundef %0, ptr noundef %1) local_unnamed_addr #0 {
  %3 = tail call zeroext i8 @l_Lean_Expr_hasFVar(ptr noundef %1) #3
  %4 = icmp eq i8 %3, 0
  br i1 %4, label %lean_dec.exit.thread, label %.lr.ph

.lr.ph:                                           ; preds = %2, %lean_dec.exit
  %.05097 = phi ptr [ %.151, %lean_dec.exit ], [ %1, %2 ]
  %5 = ptrtoint ptr %.05097 to i64
  %6 = and i64 %5, 1
  %.not.i73 = icmp eq i64 %6, 0
  br i1 %.not.i73, label %10, label %7

7:                                                ; preds = %.lr.ph
  %8 = lshr i64 %5, 1
  %9 = trunc i64 %8 to i32
  br label %lean_obj_tag.exit

10:                                               ; preds = %.lr.ph
  %11 = getelementptr i8, ptr %.05097, i64 4
  %.val.i = load i32, ptr %11, align 4
  %12 = lshr i32 %.val.i, 24
  br label %lean_obj_tag.exit

lean_obj_tag.exit:                                ; preds = %7, %10
  %.0.i = phi i32 [ %9, %7 ], [ %12, %10 ]
  switch i32 %.0.i, label %lean_dec.exit.thread [
    i32 1, label %13
    i32 5, label %29
    i32 6, label %36
    i32 7, label %43
    i32 8, label %50
    i32 10, label %lean_dec.exit.sink.split
    i32 11, label %62
  ]

13:                                               ; preds = %lean_obj_tag.exit
  %14 = getelementptr inbounds nuw i8, ptr %.05097, i64 8
  %15 = load ptr, ptr %14, align 8, !tbaa !10
  %16 = tail call ptr @l_Lean_RBNode_findCore___at___private_Lean_Meta_FunInfo_0__Lean_Meta_getFunInfoAux___spec__2(ptr noundef %0, ptr noundef %15) #3
  %17 = ptrtoint ptr %16 to i64
  %18 = and i64 %17, 1
  %.not.i74 = icmp eq i64 %18, 0
  br i1 %.not.i74, label %lean_obj_tag.exit77.thread, label %lean_obj_tag.exit77

lean_obj_tag.exit77:                              ; preds = %13
  %19 = and i64 %17, 8589934590
  %20 = icmp ne i64 %19, 0
  %spec.select = zext i1 %20 to i8
  br label %lean_dec.exit.thread

lean_obj_tag.exit77.thread:                       ; preds = %13
  %21 = getelementptr i8, ptr %16, i64 4
  %.val.i76 = load i32, ptr %21, align 4
  %22 = icmp ult i32 %.val.i76, 16777216
  br i1 %22, label %lean_dec.exit.thread, label %.thread

.thread:                                          ; preds = %lean_obj_tag.exit77.thread
  %23 = load i32, ptr %16, align 4, !tbaa !4
  %24 = icmp sgt i32 %23, 1
  br i1 %24, label %25, label %27, !prof !9

25:                                               ; preds = %.thread
  %26 = add nsw i32 %23, -1
  store i32 %26, ptr %16, align 4, !tbaa !4
  br label %lean_dec.exit.thread

27:                                               ; preds = %.thread
  %.not.i = icmp eq i32 %23, 0
  br i1 %.not.i, label %lean_dec.exit.thread, label %28

28:                                               ; preds = %27
  tail call void @lean_dec_ref_cold(ptr noundef nonnull %16) #3
  br label %lean_dec.exit.thread

29:                                               ; preds = %lean_obj_tag.exit
  %30 = getelementptr inbounds nuw i8, ptr %.05097, i64 8
  %31 = load ptr, ptr %30, align 8, !tbaa !10
  %32 = getelementptr inbounds nuw i8, ptr %.05097, i64 16
  %33 = load ptr, ptr %32, align 8, !tbaa !10
  %34 = tail call zeroext i8 @l_Lean_Expr_hasAnyFVar_visit___at___private_Lean_Compiler_LCNF_DependsOn_0__Lean_Compiler_LCNF_typeDepOn___spec__1(ptr noundef %0, ptr noundef %31)
  %35 = icmp eq i8 %34, 0
  br i1 %35, label %lean_dec.exit, label %lean_dec.exit.thread

36:                                               ; preds = %lean_obj_tag.exit
  %37 = getelementptr inbounds nuw i8, ptr %.05097, i64 16
  %38 = load ptr, ptr %37, align 8, !tbaa !10
  %39 = getelementptr inbounds nuw i8, ptr %.05097, i64 24
  %40 = load ptr, ptr %39, align 8, !tbaa !10
  %41 = tail call zeroext i8 @l_Lean_Expr_hasAnyFVar_visit___at___private_Lean_Compiler_LCNF_DependsOn_0__Lean_Compiler_LCNF_typeDepOn___spec__1(ptr noundef %0, ptr noundef %38)
  %42 = icmp eq i8 %41, 0
  br i1 %42, label %lean_dec.exit, label %lean_dec.exit.thread

43:                                               ; preds = %lean_obj_tag.exit
  %44 = getelementptr inbounds nuw i8, ptr %.05097, i64 16
  %45 = load ptr, ptr %44, align 8, !tbaa !10
  %46 = getelementptr inbounds nuw i8, ptr %.05097, i64 24
  %47 = load ptr, ptr %46, align 8, !tbaa !10
  %48 = tail call zeroext i8 @l_Lean_Expr_hasAnyFVar_visit___at___private_Lean_Compiler_LCNF_DependsOn_0__Lean_Compiler_LCNF_typeDepOn___spec__1(ptr noundef %0, ptr noundef %45)
  %49 = icmp eq i8 %48, 0
  br i1 %49, label %lean_dec.exit, label %lean_dec.exit.thread

50:                                               ; preds = %lean_obj_tag.exit
  %51 = getelementptr inbounds nuw i8, ptr %.05097, i64 16
  %52 = load ptr, ptr %51, align 8, !tbaa !10
  %53 = getelementptr inbounds nuw i8, ptr %.05097, i64 24
  %54 = load ptr, ptr %53, align 8, !tbaa !10
  %55 = getelementptr inbounds nuw i8, ptr %.05097, i64 32
  %56 = load ptr, ptr %55, align 8, !tbaa !10
  %57 = tail call zeroext i8 @l_Lean_Expr_hasAnyFVar_visit___at___private_Lean_Compiler_LCNF_DependsOn_0__Lean_Compiler_LCNF_typeDepOn___spec__1(ptr noundef %0, ptr noundef %52)
  %58 = icmp eq i8 %57, 0
  br i1 %58, label %59, label %lean_dec.exit.thread

59:                                               ; preds = %50
  %60 = tail call zeroext i8 @l_Lean_Expr_hasAnyFVar_visit___at___private_Lean_Compiler_LCNF_DependsOn_0__Lean_Compiler_LCNF_typeDepOn___spec__1(ptr noundef %0, ptr noundef %54)
  %61 = icmp eq i8 %60, 0
  br i1 %61, label %lean_dec.exit, label %lean_dec.exit.thread

62:                                               ; preds = %lean_obj_tag.exit
  br label %lean_dec.exit.sink.split

lean_dec.exit.sink.split:                         ; preds = %lean_obj_tag.exit, %62
  %.sink95 = phi i64 [ 24, %62 ], [ 16, %lean_obj_tag.exit ]
  %63 = getelementptr inbounds nuw i8, ptr %.05097, i64 %.sink95
  %64 = load ptr, ptr %63, align 8, !tbaa !10
  br label %lean_dec.exit

lean_dec.exit:                                    ; preds = %lean_dec.exit.sink.split, %59, %29, %36, %43
  %.151 = phi ptr [ %47, %43 ], [ %40, %36 ], [ %33, %29 ], [ %56, %59 ], [ %64, %lean_dec.exit.sink.split ]
  %65 = tail call zeroext i8 @l_Lean_Expr_hasFVar(ptr noundef %.151) #3
  %66 = icmp eq i8 %65, 0
  br i1 %66, label %lean_dec.exit.thread, label %.lr.ph

lean_dec.exit.thread:                             ; preds = %lean_dec.exit, %50, %lean_obj_tag.exit, %43, %36, %29, %59, %2, %lean_obj_tag.exit77, %25, %27, %28, %lean_obj_tag.exit77.thread
  %.184 = phi i8 [ 1, %25 ], [ 1, %27 ], [ 1, %28 ], [ 0, %lean_obj_tag.exit77.thread ], [ %spec.select, %lean_obj_tag.exit77 ], [ 0, %2 ], [ 1, %59 ], [ 1, %29 ], [ 1, %36 ], [ 1, %43 ], [ 0, %lean_obj_tag.exit ], [ 1, %50 ], [ 0, %lean_dec.exit ]
  ret i8 %.184
}